target datalayout = "e-m:e-p270:32:32-p271:32:32-p272:64:64-i64:64-i128:128-f80:128-n8:16:32:64-S128"
target triple = "x86_64-pc-linux-gnu"

%struct._k12_src_desc_t = type { i32, i32, ptr, ptr, %union.k12_input_info_t }
%union.k12_input_info_t = type { i32, [4 x i8] }

; Function Attrs: null_pointer_is_valid sspstrong uwtable
define internal i32 @destroy_srcdsc(ptr noundef %0, ptr noundef %1, ptr noundef %2) #0 {
  %4 = alloca ptr, align 8
  %5 = alloca ptr, align 8
  %6 = alloca ptr, align 8
  %7 = alloca ptr, align 8
  store ptr %0, ptr %4, align 8
  store ptr %1, ptr %5, align 8
  store ptr %2, ptr %6, align 8
  call void @llvm.lifetime.start.p0(i64 8, ptr %7) #14
  %8 = load ptr, ptr %5, align 8
  store ptr %8, ptr %7, align 8
  %9 = load ptr, ptr %7, align 8
  %10 = getelementptr inbounds nuw %struct._k12_src_desc_t, ptr %9, i32 0, i32 2
  %11 = load ptr, ptr %10, align 8
  call void @g_free(ptr noundef %11)
  %12 = load ptr, ptr %7, align 8
  %13 = getelementptr inbounds nuw %struct._k12_src_desc_t, ptr %12, i32 0, i32 3
  %14 = load ptr, ptr %13, align 8
  call void @g_free(ptr noundef %14)
  %15 = load ptr, ptr %7, align 8
  call void @g_free(ptr noundef %15)
  call void @llvm.lifetime.end.p0(i64 8, ptr %7) #14
  ret i32 1
}