; Function Attrs: null_pointer_is_valid sspstrong uwtable
define internal noundef i32 @destroy_srcdsc(ptr readnone captures(none) %0, ptr noundef %1, ptr readnone captures(none) %2) #0 {
  %4 = getelementptr inbounds nuw i8, ptr %1, i64 8
  %5 = load ptr, ptr %4, align 8
  tail call void @g_free(ptr noundef %5)
  %6 = getelementptr inbounds nuw i8, ptr %1, i64 16
  %7 = load ptr, ptr %6, align 8
  tail call void @g_free(ptr noundef %7)
  tail call void @g_free(ptr noundef %1)
  ret i32 1
}